target datalayout = "e-m:e-p270:32:32-p271:32:32-p272:64:64-i64:64-i128:128-f80:128-n8:16:32:64-S128"
target triple = "x86_64-pc-linux-gnu"

; Function Attrs: mustprogress uwtable
define noundef zeroext i1 @_ZN3g2o16OptimizableGraph6Vertex22setMinimalEstimateDataEPKd(ptr noundef nonnull align 8 dereferenceable(128) %0, ptr noundef %1) #6 align 2 {
  %3 = alloca ptr, align 8
  %4 = alloca ptr, align 8
  %5 = alloca i8, align 1
  store ptr %0, ptr %3, align 8, !tbaa !14
  store ptr %1, ptr %4, align 8, !tbaa !50
  %6 = load ptr, ptr %3, align 8
  call void @llvm.lifetime.start.p0(i64 1, ptr %5) #3
  %7 = load ptr, ptr %4, align 8, !tbaa !50
  %8 = load ptr, ptr %6, align 8, !tbaa !16
  %9 = getelementptr inbounds ptr, ptr %8, i64 31
  %10 = load ptr, ptr %9, align 8
  %11 = call noundef zeroext i1 %10(ptr noundef nonnull align 8 dereferenceable(128) %6, ptr noundef %7)
  %12 = zext i1 %11 to i8
  store i8 %12, ptr %5, align 1, !tbaa !52
  %13 = load ptr, ptr %6, align 8, !tbaa !16
  %14 = getelementptr inbounds ptr, ptr %13, i64 27
  %15 = load ptr, ptr %14, align 8
  call void %15(ptr noundef nonnull align 8 dereferenceable(128) %6)
  %16 = load i8, ptr %5, align 1, !tbaa !52, !range !53, !noundef !54
  %17 = trunc i8 %16 to i1
  call void @llvm.lifetime.end.p0(i64 1, ptr %5) #3
  ret i1 %17
}