; Function Attrs: mustprogress uwtable
define noundef zeroext i1 @_ZN3g2o16OptimizableGraph6Vertex22setMinimalEstimateDataEPKd(ptr noundef nonnull align 8 dereferenceable(128) %0, ptr noundef %1) local_unnamed_addr #4 align 2 {
  %3 = load ptr, ptr %0, align 8, !tbaa !9
  %4 = getelementptr inbounds nuw i8, ptr %3, i64 248
  %5 = load ptr, ptr %4, align 8
  %6 = tail call noundef zeroext i1 %5(ptr noundef nonnull align 8 dereferenceable(128) %0, ptr noundef %1)
  %7 = load ptr, ptr %0, align 8, !tbaa !9
  %8 = getelementptr inbounds nuw i8, ptr %7, i64 216
  %9 = load ptr, ptr %8, align 8
  tail call void %9(ptr noundef nonnull align 8 dereferenceable(128) %0)
  ret i1 %6
}